; Function Attrs: mustprogress uwtable
define noundef ptr @_ZNK6icu_7716SimpleDateFormat17getTimeZoneFormatEv(ptr noundef nonnull align 8 dereferenceable(528) %0) unnamed_addr #1 align 2 personality ptr @__gxx_personality_v0 {
  %2 = alloca i32, align 4
  call void @llvm.lifetime.start.p0(i64 4, ptr nonnull %2) #23
  store i32 0, ptr %2, align 4, !tbaa !13
  tail call void @umtx_lock_77(ptr noundef nonnull @_ZN6icu_77L4LOCKE)
  %3 = getelementptr inbounds nuw i8, ptr %0, i64 472
  %4 = load ptr, ptr %3, align 8, !tbaa !48
  %.not = icmp eq ptr %4, null
  br i1 %.not, label %5, label %14

5:                                                ; preds = %1
  %6 = getelementptr inbounds nuw i8, ptr %0, i64 240
  %7 = invoke noundef ptr @_ZN6icu_7714TimeZoneFormat14createInstanceERKNS_6LocaleER10UErrorCode(ptr noundef nonnull align 8 dereferenceable(217) %6, ptr noundef nonnull align 4 dereferenceable(4) %2)
          to label %8 unwind label %9

8:                                                ; preds = %5
  store ptr %7, ptr %3, align 8, !tbaa !48
  br label %14

9:                                                ; preds = %5
  %10 = landingpad { ptr, i32 }
          cleanup
  invoke void @umtx_unlock_77(ptr noundef nonnull @_ZN6icu_77L4LOCKE)
          to label %_ZN6icu_775MutexD2Ev.exit.i unwind label %11

11:                                               ; preds = %9
  %12 = landingpad { ptr, i32 }
          catch ptr null
  %13 = extractvalue { ptr, i32 } %12, 0
  call void @__clang_call_terminate(ptr %13) #25
  unreachable

_ZN6icu_775MutexD2Ev.exit.i:                      ; preds = %9
  resume { ptr, i32 } %10

14:                                               ; preds = %8, %1
  %15 = phi ptr [ %7, %8 ], [ %4, %1 ]
  invoke void @umtx_unlock_77(ptr noundef nonnull @_ZN6icu_77L4LOCKE)
          to label %_ZNK6icu_7716SimpleDateFormat8tzFormatER10UErrorCode.exit unwind label %16

16:                                               ; preds = %14
  %17 = landingpad { ptr, i32 }
          catch ptr null
  %18 = extractvalue { ptr, i32 } %17, 0
  call void @__clang_call_terminate(ptr %18) #25
  unreachable

_ZNK6icu_7716SimpleDateFormat8tzFormatER10UErrorCode.exit: ; preds = %14
  call void @llvm.lifetime.end.p0(i64 4, ptr nonnull %2) #23
  ret ptr %15
}